; Function Attrs: nounwind uwtable
define dso_local ptr @_PyInterpreterState_GetIDObject(ptr noundef readonly captures(none) %0) local_unnamed_addr #1 {
  %2 = getelementptr inbounds nuw i8, ptr %0, i64 7272
  %3 = load i64, ptr %2, align 8, !tbaa !205
  %4 = icmp slt i64 %3, 0
  br i1 %4, label %7, label %5

5:                                                ; preds = %1
  %6 = tail call ptr @PyLong_FromLongLong(i64 noundef %3) #16
  br label %7

7:                                                ; preds = %1, %5
  %.0 = phi ptr [ %6, %5 ], [ null, %1 ]
  ret ptr %.0
}